(lp0
(F0.0
S'M'
p1
tp2
a(F9.9169124024284621
S'B'
p3
tp4
a(F14.623243712055508
S'W'
p5
tp6
a(F16.091760624458004
S'N'
p7
tp8
a(F19.329575021682636
S'E'
p9
tp10
a(F21.956981786643563
S'R'
p11
tp12
a(F22.350650477016504
S'H'
p13
tp14
a(F23.266261925412017
S'K'
p15
tp16
a(F28.0566348655681
S'X'
p17
tp18
a(F28.768777103209047
S'm'
p19
tp20
a(F31.051170858629654
S'A'
p21
tp22
a(F32.953165654813517
S'Q'
p23
tp24
a(F36.111361665221203
S'd'
p25
tp26
a(F37.208326105810904
S'8'
p27
tp28
a(F39.043972246314027
S'G'
p29
tp30
a(F40.039202081526483
S'@'
p31
tp32
a(F41.84388551604512
S'S'
p33
tp34
a(F44.639375542064194
S'b'
p35
tp36
a(F45.891153512575848
S'D'
p37
tp38
a(F48.45221162185603
S'O'
p39
tp40
a(F52.769297484822232
S'P'
p41
tp42
a(F54.644752818733778
S'Z'
p43
tp44
a(F55.812489158716396
S'e'
p45
tp46
a(F57.900260190806627
S'$'
p47
tp48
a(F59.231656548135298
S'6'
p49
tp50
a(F59.492627927146586
S'9'
p51
tp52
a(F60.09861231569819
S'h'
p53
tp54
a(F61.39462272333045
S'q'
p55
tp56
a(F61.850216825672128
S'F'
p57
tp58
a(F62.305810928013869
S'x'
p59
tp60
a(F62.933911535125787
S'k'
p61
tp62
a(F63.177189939288866
S'w'
p63
tp64
a(F64.331656548135285
S'%'
p65
tp66
a(F65.870945359930616
S'U'
p67
tp68
a(F66.304423243712066
S'&'
p69
tp70
a(F67.918907198612331
S'p'
p71
tp72
a(F68.493928881179528
S'a'
p73
tp74
a(F70.418039895923698
S'T'
p75
tp76
a(F70.524197745013041
S's'
p77
tp78
a(F70.749783174327831
S'Y'
p79
tp80
a(F71.015177797051194
S'V'
p81
tp82
a(F71.059410234171722
S'0'
p83
tp84
a(F71.298265394622717
S'4'
p85
tp86
a(F71.413269731136154
S'2'
p87
tp88
a(F73.125065047701653
S'C'
p89
tp90
a(F73.386036426712934
S'f'
p91
tp92
a(F75.257068516912398
S'5'
p93
tp94
a(F78.01717259323506
S'L'
p95
tp96
a(F80.326105810928055
S'n'
p97
tp98
a(F80.480919340850008
S'o'
p99
tp100
a(F80.985169124024296
S'g'
p101
tp102
a(F85.204943625325186
S'z'
p103
tp104
a(F88.199479618386817
S'3'
p105
tp106
a(F92.94562012142238
S'c'
p107
tp108
a(F93.047354726799696
S'u'
p109
tp110
a(F93.215437987857769
S'J'
p111
tp112
a(F94.033738074588058
g47
tp113
a(F102.00442324371213
S'y'
p114
tp115
a(F102.27424111014744
S'v'
p116
tp117
a(F105.89687771032089
S't'
p118
tp119
a(F107.3167389418907
S'r'
p120
tp121
a(F109.95741543798783
S'I'
p122
tp123
a(F114.27892454466613
S'l'
p124
tp125
a(F115.23876843018216
S'i'
p126
tp127
a(F119.69297484822202
S'?'
p128
tp129
a(F128.43330442324375
S'1'
p130
tp131
a(F132.16652211621857
S'7'
p132
tp133
a(F138.15117085862968
S'}'
p134
tp135
a(F138.90312228967915
S'{'
p136
tp137
a(F144.67103209019947
S'*'
p138
tp139
a(F153.36712922810059
S'j'
p140
tp141
a(F153.9996530789245
S'+'
p142
tp143
a(F154.13677363399827
S'!'
p144
tp145
a(F154.45967042497836
S'/'
p146
tp147
a(F154.81352992194272
S'\\'
p148
tp149
a(F160.22315698178667
S')'
p150
tp151
a(F160.53720728534259
S'('
p152
tp153
a(F165.73894189071984
S':'
p154
tp155
a(F170.15333911535126
S';'
p156
tp157
a(F195.83469210754561
S'"'
p158
tp159
a(F197.95342584562016
S'^'
p160
tp161
a(F207.72437120555068
S','
p162
tp163
a(F210.07311361665222
S'.'
p164
tp165
a(F224.13902862098871
S"'"
p166
tp167
a(F255.0
S'_'
p168
tp169
a.